; Function Attrs: mustprogress nofree nounwind sspstrong willreturn memory(read, argmem: readwrite, inaccessiblemem: none) uwtable
define internal fastcc noundef zeroext i1 @parallels_test_data_off(ptr noundef readonly captures(none) %s, i64 noundef range(i64 0, -9223372036854775808) %file_nb_sectors, ptr noundef nonnull writeonly captures(none) initializes((0, 4)) %correct_offset) unnamed_addr #4 {
entry:
  %header = getelementptr inbounds nuw i8, ptr %s, i64 48
  %0 = load ptr, ptr %header, align 8
  %bcmp = tail call i32 @bcmp(ptr noundef nonnull dereferenceable(16) %0, ptr noundef nonnull dereferenceable(16) @.str.9, i64 16)
  %tobool.not.not = icmp eq i32 %bcmp, 0
  %bat_size = getelementptr inbounds nuw i8, ptr %s, i64 104
  %1 = load i32, ptr %bat_size, align 8
  %mul.i = shl i32 %1, 2
  %add.i = add i32 %mul.i, 64
  %conv = zext i32 %add.i to i64
  %sub = add nuw nsw i64 %conv, 511
  %div14 = lshr i64 %sub, 9
  br i1 %tobool.not.not, label %if.end, label %if.then

if.then:                                          ; preds = %entry
  %cluster_size = getelementptr inbounds nuw i8, ptr %s, i64 144
  %2 = load i32, ptr %cluster_size, align 8
  %3 = lshr i32 %2, 9
  %div6 = zext nneg i32 %3 to i64
  %add7 = add nuw nsw i64 %div14, 4294967295
  %sub8 = add nuw nsw i64 %add7, %div6
  %sub12 = sub nsw i64 0, %div6
  %and = and i64 %sub8, %sub12
  br label %if.end

if.end:                                           ; preds = %if.then, %entry
  %min_off.0.in = phi i64 [ %div14, %entry ], [ %and, %if.then ]
  %min_off.0 = trunc i64 %min_off.0.in to i32
  store i32 %min_off.0, ptr %correct_offset, align 4
  %4 = load ptr, ptr %header, align 8
  %data_off18 = getelementptr inbounds nuw i8, ptr %4, i64 48
  %5 = load i32, ptr %data_off18, align 1
  %6 = or i32 %5, %bcmp
  %brmerge.not = icmp eq i32 %6, 0
  br i1 %brmerge.not, label %return, label %if.end24

if.end24:                                         ; preds = %if.end
  %cmp25 = icmp ult i32 %5, %min_off.0
  %conv27 = zext i32 %5 to i64
  %cmp28 = icmp samesign ult i64 %file_nb_sectors, %conv27
  %or.cond = select i1 %cmp25, i1 true, i1 %cmp28
  br i1 %or.cond, label %return, label %if.then33

if.then33:                                        ; preds = %if.end24
  store i32 %5, ptr %correct_offset, align 4
  br label %return

return:                                           ; preds = %if.end24, %if.end, %if.then33
  %retval.0 = phi i1 [ true, %if.then33 ], [ true, %if.end ], [ false, %if.end24 ]
  ret i1 %retval.0
}